target datalayout = "e-m:e-p270:32:32-p271:32:32-p272:64:64-i64:64-i128:128-f80:128-n8:16:32:64-S128"
target triple = "x86_64-pc-linux-gnu"

%struct.hs_scratch = type { i32, i8, i32, i32, i32, i32, i32, %struct.RoseContext, ptr, ptr, ptr, ptr, ptr, ptr, ptr, i64, %struct.catchup_pq, %struct.core_info, %struct.match_deduper, i32, i32, ptr, ptr, ptr, ptr, ptr, i64, i32, i32, i32, i32, i32, ptr, ptr, i8 }
%struct.RoseContext = type { i8, i64, i64, i64, i64, i64, i64, i64, i64, i64, i32, i32, ptr, i64, ptr, i64 }
%struct.catchup_pq = type { ptr, i32 }
%struct.core_info = type { ptr, ptr, ptr, ptr, ptr, ptr, ptr, ptr, i64, ptr, i64, i64, i8 }
%struct.match_deduper = type { [2 x ptr], [2 x ptr], [2 x ptr], i32, i32, i64, i8 }
%struct.RoseEngine = type { i8, i8, i8, i8, i8, i8, i8, i8, i8, i32, i32, i32, i32, i32, i32, i32, i32, i32, i32, i32, i32, i32, i32, i32, i32, i32, i32, i32, i32, i32, i32, i32, i32, i32, i32, i32, i32, i32, i32, i32, i32, i32, i32, i32, i32, i32, i32, i32, i32, i32, i32, i32, i32, i32, i32, i32, i32, i32, i32, i32, i32, i32, i32, i32, i32, i32, i64, i64, i32, i32, i32, i32, i32, i32, i32, %struct.RoseStateOffsets, %struct.RoseBoundaryReports, i32, i32, i32, i32, i32, i32, i32, i32, i32, i32, i32, i32, %struct.scatter_full_plan }
%struct.RoseStateOffsets = type { i32, i32, i32, i32, i32, i32, i32, i32, i32, i32, i32, i32, i32, i32, i32, i32, i32, i32, i32, i32, i32, i32, i32 }
%struct.RoseBoundaryReports = type { i32, i32, i32 }
%struct.scatter_full_plan = type { i32, i32, i32, i32, i32, i32, i32, i32 }
%struct.unaligned = type { i64 }
%struct.unaligned.0 = type { i32 }
%struct.unaligned.1 = type { i16 }

; Function Attrs: alwaysinline nounwind uwtable
define internal zeroext i16 @unaligned_load_u16(ptr noundef %0) #2 {
  %2 = alloca ptr, align 8
  %3 = alloca ptr, align 8
  store ptr %0, ptr %2, align 8
  call void @llvm.lifetime.start.p0(i64 8, ptr %3) #11
  %4 = load ptr, ptr %2, align 8
  store ptr %4, ptr %3, align 8
  %5 = load ptr, ptr %3, align 8
  %6 = getelementptr inbounds nuw %struct.unaligned.1, ptr %5, i32 0, i32 0
  %7 = load i16, ptr %6, align 1
  call void @llvm.lifetime.end.p0(i64 8, ptr %3) #11
  ret i16 %7
}

; Function Attrs: alwaysinline nounwind uwtable
define internal i32 @unaligned_load_u32(ptr noundef %0) #2 {
  %2 = alloca ptr, align 8
  %3 = alloca ptr, align 8
  store ptr %0, ptr %2, align 8
  call void @llvm.lifetime.start.p0(i64 8, ptr %3) #11
  %4 = load ptr, ptr %2, align 8
  store ptr %4, ptr %3, align 8
  %5 = load ptr, ptr %3, align 8
  %6 = getelementptr inbounds nuw %struct.unaligned.0, ptr %5, i32 0, i32 0
  %7 = load i32, ptr %6, align 1
  call void @llvm.lifetime.end.p0(i64 8, ptr %3) #11
  ret i32 %7
}

; Function Attrs: alwaysinline nounwind uwtable
define internal i64 @unaligned_load_u64a(ptr noundef %0) #2 {
  %2 = alloca ptr, align 8
  %3 = alloca ptr, align 8
  store ptr %0, ptr %2, align 8
  call void @llvm.lifetime.start.p0(i64 8, ptr %3) #11
  %4 = load ptr, ptr %2, align 8
  store ptr %4, ptr %3, align 8
  %5 = load ptr, ptr %3, align 8
  %6 = getelementptr inbounds nuw %struct.unaligned, ptr %5, i32 0, i32 0
  %7 = load i64, ptr %6, align 1
  call void @llvm.lifetime.end.p0(i64 8, ptr %3) #11
  ret i64 %7
}

; Function Attrs: alwaysinline nounwind uwtable
define internal i64 @partial_load_u64a(ptr noundef %0, i32 noundef %1) #2 {
  %3 = alloca i64, align 8
  %4 = alloca ptr, align 8
  %5 = alloca i32, align 4
  %6 = alloca i64, align 8
  %7 = alloca i32, align 4
  store ptr %0, ptr %4, align 8
  store i32 %1, ptr %5, align 4
  call void @llvm.lifetime.start.p0(i64 8, ptr %6) #11
  %8 = load i32, ptr %5, align 4
  switch i32 %8, label %83 [
    i32 8, label %9
    i32 7, label %13
    i32 6, label %32
    i32 5, label %44
    i32 4, label %56
    i32 3, label %61
    i32 2, label %73
    i32 1, label %78
    i32 0, label %83
  ]

9:                                                ; preds = %2
  %10 = load ptr, ptr %4, align 8
  %11 = call i64 @unaligned_load_u64a(ptr noundef %10)
  store i64 %11, ptr %6, align 8
  %12 = load i64, ptr %6, align 8
  store i64 %12, ptr %3, align 8
  store i32 1, ptr %7, align 4
  br label %84

13:                                               ; preds = %2
  %14 = load ptr, ptr %4, align 8
  %15 = call i32 @unaligned_load_u32(ptr noundef %14)
  %16 = zext i32 %15 to i64
  store i64 %16, ptr %6, align 8
  %17 = load ptr, ptr %4, align 8
  %18 = getelementptr inbounds i8, ptr %17, i64 4
  %19 = call zeroext i16 @unaligned_load_u16(ptr noundef %18)
  %20 = zext i16 %19 to i64
  %21 = shl i64 %20, 32
  %22 = load i64, ptr %6, align 8
  %23 = or i64 %22, %21
  store i64 %23, ptr %6, align 8
  %24 = load ptr, ptr %4, align 8
  %25 = getelementptr inbounds i8, ptr %24, i64 6
  %26 = load i8, ptr %25, align 1
  %27 = zext i8 %26 to i64
  %28 = shl i64 %27, 48
  %29 = load i64, ptr %6, align 8
  %30 = or i64 %29, %28
  store i64 %30, ptr %6, align 8
  %31 = load i64, ptr %6, align 8
  store i64 %31, ptr %3, align 8
  store i32 1, ptr %7, align 4
  br label %84

32:                                               ; preds = %2
  %33 = load ptr, ptr %4, align 8
  %34 = call i32 @unaligned_load_u32(ptr noundef %33)
  %35 = zext i32 %34 to i64
  store i64 %35, ptr %6, align 8
  %36 = load ptr, ptr %4, align 8
  %37 = getelementptr inbounds i8, ptr %36, i64 4
  %38 = call zeroext i16 @unaligned_load_u16(ptr noundef %37)
  %39 = zext i16 %38 to i64
  %40 = shl i64 %39, 32
  %41 = load i64, ptr %6, align 8
  %42 = or i64 %41, %40
  store i64 %42, ptr %6, align 8
  %43 = load i64, ptr %6, align 8
  store i64 %43, ptr %3, align 8
  store i32 1, ptr %7, align 4
  br label %84

44:                                               ; preds = %2
  %45 = load ptr, ptr %4, align 8
  %46 = call i32 @unaligned_load_u32(ptr noundef %45)
  %47 = zext i32 %46 to i64
  store i64 %47, ptr %6, align 8
  %48 = load ptr, ptr %4, align 8
  %49 = getelementptr inbounds i8, ptr %48, i64 4
  %50 = load i8, ptr %49, align 1
  %51 = zext i8 %50 to i64
  %52 = shl i64 %51, 32
  %53 = load i64, ptr %6, align 8
  %54 = or i64 %53, %52
  store i64 %54, ptr %6, align 8
  %55 = load i64, ptr %6, align 8
  store i64 %55, ptr %3, align 8
  store i32 1, ptr %7, align 4
  br label %84

56:                                               ; preds = %2
  %57 = load ptr, ptr %4, align 8
  %58 = call i32 @unaligned_load_u32(ptr noundef %57)
  %59 = zext i32 %58 to i64
  store i64 %59, ptr %6, align 8
  %60 = load i64, ptr %6, align 8
  store i64 %60, ptr %3, align 8
  store i32 1, ptr %7, align 4
  br label %84

61:                                               ; preds = %2
  %62 = load ptr, ptr %4, align 8
  %63 = call zeroext i16 @unaligned_load_u16(ptr noundef %62)
  %64 = zext i16 %63 to i64
  store i64 %64, ptr %6, align 8
  %65 = load ptr, ptr %4, align 8
  %66 = getelementptr inbounds i8, ptr %65, i64 2
  %67 = load i8, ptr %66, align 1
  %68 = zext i8 %67 to i64
  %69 = shl i64 %68, 16
  %70 = load i64, ptr %6, align 8
  %71 = or i64 %70, %69
  store i64 %71, ptr %6, align 8
  %72 = load i64, ptr %6, align 8
  store i64 %72, ptr %3, align 8
  store i32 1, ptr %7, align 4
  br label %84

73:                                               ; preds = %2
  %74 = load ptr, ptr %4, align 8
  %75 = call zeroext i16 @unaligned_load_u16(ptr noundef %74)
  %76 = zext i16 %75 to i64
  store i64 %76, ptr %6, align 8
  %77 = load i64, ptr %6, align 8
  store i64 %77, ptr %3, align 8
  store i32 1, ptr %7, align 4
  br label %84

78:                                               ; preds = %2
  %79 = load ptr, ptr %4, align 8
  %80 = load i8, ptr %79, align 1
  %81 = zext i8 %80 to i64
  store i64 %81, ptr %6, align 8
  %82 = load i64, ptr %6, align 8
  store i64 %82, ptr %3, align 8
  store i32 1, ptr %7, align 4
  br label %84

83:                                               ; preds = %2, %2
  store i64 0, ptr %3, align 8
  store i32 1, ptr %7, align 4
  br label %84

84:                                               ; preds = %83, %78, %73, %61, %56, %44, %32, %13, %9
  call void @llvm.lifetime.end.p0(i64 8, ptr %6) #11
  %85 = load i64, ptr %3, align 8
  ret i64 %85
}

; Function Attrs: alwaysinline nounwind uwtable
define internal void @fatbit_clear(ptr noundef %0) #2 {
  %2 = alloca ptr, align 8
  store ptr %0, ptr %2, align 8
  %3 = load ptr, ptr %2, align 8
  call void @llvm.memset.p0.i64(ptr align 8 %3, i8 0, i64 32, i1 false)
  ret void
}

; Function Attrs: alwaysinline nounwind uwtable
define internal i64 @loadGroups(ptr noundef %0, ptr noundef %1) #2 {
  %3 = alloca ptr, align 8
  %4 = alloca ptr, align 8
  store ptr %0, ptr %3, align 8
  store ptr %1, ptr %4, align 8
  %5 = load ptr, ptr %4, align 8
  %6 = load ptr, ptr %3, align 8
  %7 = getelementptr inbounds nuw %struct.RoseEngine, ptr %6, i32 0, i32 75
  %8 = getelementptr inbounds nuw %struct.RoseStateOffsets, ptr %7, i32 0, i32 13
  %9 = load i32, ptr %8, align 4
  %10 = zext i32 %9 to i64
  %11 = getelementptr inbounds nuw i8, ptr %5, i64 %10
  %12 = load ptr, ptr %3, align 8
  %13 = getelementptr inbounds nuw %struct.RoseEngine, ptr %12, i32 0, i32 75
  %14 = getelementptr inbounds nuw %struct.RoseStateOffsets, ptr %13, i32 0, i32 14
  %15 = load i32, ptr %14, align 4
  %16 = call i64 @partial_load_u64a(ptr noundef %11, i32 noundef %15)
  ret i64 %16
}

; Function Attrs: alwaysinline nounwind uwtable
define internal void @roseStreamInitEod(ptr noundef %0, i64 noundef %1, ptr noundef %2) #2 {
  %4 = alloca ptr, align 8
  %5 = alloca i64, align 8
  %6 = alloca ptr, align 8
  %7 = alloca ptr, align 8
  store ptr %0, ptr %4, align 8
  store i64 %1, ptr %5, align 8
  store ptr %2, ptr %6, align 8
  call void @llvm.lifetime.start.p0(i64 8, ptr %7) #11
  %8 = load ptr, ptr %6, align 8
  %9 = getelementptr inbounds nuw %struct.hs_scratch, ptr %8, i32 0, i32 7
  store ptr %9, ptr %7, align 8
  %10 = load ptr, ptr %4, align 8
  %11 = load ptr, ptr %6, align 8
  %12 = getelementptr inbounds nuw %struct.hs_scratch, ptr %11, i32 0, i32 17
  %13 = getelementptr inbounds nuw %struct.core_info, ptr %12, i32 0, i32 3
  %14 = load ptr, ptr %13, align 8
  %15 = call i64 @loadGroups(ptr noundef %10, ptr noundef %14)
  %16 = load ptr, ptr %7, align 8
  %17 = getelementptr inbounds nuw %struct.RoseContext, ptr %16, i32 0, i32 1
  store i64 %15, ptr %17, align 8
  %18 = load ptr, ptr %6, align 8
  %19 = getelementptr inbounds nuw %struct.hs_scratch, ptr %18, i32 0, i32 17
  %20 = getelementptr inbounds nuw %struct.core_info, ptr %19, i32 0, i32 11
  %21 = load i64, ptr %20, align 8
  %22 = load ptr, ptr %6, align 8
  %23 = getelementptr inbounds nuw %struct.hs_scratch, ptr %22, i32 0, i32 17
  %24 = getelementptr inbounds nuw %struct.core_info, ptr %23, i32 0, i32 10
  %25 = load i64, ptr %24, align 8
  %26 = sub i64 %21, %25
  %27 = add i64 %26, 1
  %28 = load ptr, ptr %7, align 8
  %29 = getelementptr inbounds nuw %struct.RoseContext, ptr %28, i32 0, i32 2
  store i64 %27, ptr %29, align 8
  %30 = load i64, ptr %5, align 8
  %31 = load ptr, ptr %7, align 8
  %32 = getelementptr inbounds nuw %struct.RoseContext, ptr %31, i32 0, i32 3
  store i64 %30, ptr %32, align 8
  %33 = load i64, ptr %5, align 8
  %34 = load ptr, ptr %7, align 8
  %35 = getelementptr inbounds nuw %struct.RoseContext, ptr %34, i32 0, i32 4
  store i64 %33, ptr %35, align 8
  %36 = load ptr, ptr %7, align 8
  %37 = getelementptr inbounds nuw %struct.RoseContext, ptr %36, i32 0, i32 10
  store i32 0, ptr %37, align 8
  %38 = load ptr, ptr %7, align 8
  %39 = getelementptr inbounds nuw %struct.RoseContext, ptr %38, i32 0, i32 5
  store i64 0, ptr %39, align 8
  %40 = load i64, ptr %5, align 8
  %41 = load ptr, ptr %7, align 8
  %42 = getelementptr inbounds nuw %struct.RoseContext, ptr %41, i32 0, i32 6
  store i64 %40, ptr %42, align 8
  %43 = load i64, ptr %5, align 8
  %44 = load ptr, ptr %7, align 8
  %45 = getelementptr inbounds nuw %struct.RoseContext, ptr %44, i32 0, i32 7
  store i64 %43, ptr %45, align 8
  %46 = load i64, ptr %5, align 8
  %47 = load ptr, ptr %7, align 8
  %48 = getelementptr inbounds nuw %struct.RoseContext, ptr %47, i32 0, i32 8
  store i64 %46, ptr %48, align 8
  %49 = load i64, ptr %5, align 8
  %50 = load ptr, ptr %7, align 8
  %51 = getelementptr inbounds nuw %struct.RoseContext, ptr %50, i32 0, i32 9
  store i64 %49, ptr %51, align 8
  %52 = load ptr, ptr %6, align 8
  %53 = getelementptr inbounds nuw %struct.hs_scratch, ptr %52, i32 0, i32 16
  %54 = getelementptr inbounds nuw %struct.catchup_pq, ptr %53, i32 0, i32 1
  store i32 0, ptr %54, align 8
  %55 = load ptr, ptr %6, align 8
  %56 = getelementptr inbounds nuw %struct.hs_scratch, ptr %55, i32 0, i32 15
  store i64 0, ptr %56, align 16
  %57 = load ptr, ptr %6, align 8
  %58 = getelementptr inbounds nuw %struct.hs_scratch, ptr %57, i32 0, i32 12
  %59 = load ptr, ptr %58, align 8
  call void @fatbit_clear(ptr noundef %59)
  call void @llvm.lifetime.end.p0(i64 8, ptr %7) #11
  ret void
}

; Function Attrs: nounwind uwtable
define hidden void @roseStreamEodExec(ptr noundef %0, i64 noundef %1, ptr noundef %2) #0 {
  %4 = alloca ptr, align 8
  %5 = alloca i64, align 8
  %6 = alloca ptr, align 8
  %7 = alloca i64, align 8
  %8 = alloca i8, align 1
  store ptr %0, ptr %4, align 8
  store i64 %1, ptr %5, align 8
  store ptr %2, ptr %6, align 8
  br label %9

9:                                                ; preds = %3
  br label %10

10:                                               ; preds = %9
  %11 = load ptr, ptr %4, align 8
  %12 = getelementptr inbounds nuw %struct.RoseEngine, ptr %11, i32 0, i32 58
  %13 = load i32, ptr %12, align 8
  %14 = icmp ne i32 %13, -1
  br i1 %14, label %15, label %25

15:                                               ; preds = %10
  %16 = load i64, ptr %5, align 8
  %17 = load ptr, ptr %4, align 8
  %18 = getelementptr inbounds nuw %struct.RoseEngine, ptr %17, i32 0, i32 58
  %19 = load i32, ptr %18, align 8
  %20 = zext i32 %19 to i64
  %21 = icmp ugt i64 %16, %20
  br i1 %21, label %22, label %25

22:                                               ; preds = %15
  br label %23

23:                                               ; preds = %22
  br label %24

24:                                               ; preds = %23
  br label %46

25:                                               ; preds = %15, %10
  %26 = load ptr, ptr %4, align 8
  %27 = getelementptr inbounds nuw %struct.RoseEngine, ptr %26, i32 0, i32 52
  %28 = load i32, ptr %27, align 8
  %29 = icmp ne i32 %28, 0
  br i1 %29, label %33, label %30

30:                                               ; preds = %25
  br label %31

31:                                               ; preds = %30
  br label %32

32:                                               ; preds = %31
  br label %46

33:                                               ; preds = %25
  %34 = load ptr, ptr %4, align 8
  %35 = load i64, ptr %5, align 8
  %36 = load ptr, ptr %6, align 8
  call void @roseStreamInitEod(ptr noundef %34, i64 noundef %35, ptr noundef %36)
  br label %37

37:                                               ; preds = %33
  br label %38

38:                                               ; preds = %37
  call void @llvm.lifetime.start.p0(i64 8, ptr %7) #11
  store i64 0, ptr %7, align 8
  call void @llvm.lifetime.start.p0(i64 1, ptr %8) #11
  store i8 8, ptr %8, align 1
  %39 = load ptr, ptr %4, align 8
  %40 = load ptr, ptr %6, align 8
  %41 = load ptr, ptr %4, align 8
  %42 = getelementptr inbounds nuw %struct.RoseEngine, ptr %41, i32 0, i32 52
  %43 = load i32, ptr %42, align 8
  %44 = load i64, ptr %5, align 8
  %45 = call i64 @roseRunProgram(ptr noundef %39, ptr noundef %40, i32 noundef %43, i64 noundef 0, i64 noundef %44, i8 noundef zeroext 8)
  call void @llvm.lifetime.end.p0(i64 1, ptr %8) #11
  call void @llvm.lifetime.end.p0(i64 8, ptr %7) #11
  br label %46

46:                                               ; preds = %38, %32, %24
  ret void
}