; Function Attrs: nounwind uwtable
define hidden void @roseStreamEodExec(ptr noundef %0, i64 noundef %1, ptr noundef %2) local_unnamed_addr #3 {
  %4 = getelementptr inbounds nuw i8, ptr %0, i64 208
  %5 = load i32, ptr %4, align 8
  %.not = icmp ne i32 %5, -1
  %6 = zext i32 %5 to i64
  %7 = icmp ugt i64 %1, %6
  %or.cond = and i1 %.not, %7
  br i1 %or.cond, label %90, label %8

8:                                                ; preds = %3
  %9 = getelementptr inbounds nuw i8, ptr %0, i64 184
  %10 = load i32, ptr %9, align 8
  %.not10 = icmp eq i32 %10, 0
  br i1 %.not10, label %90, label %11

11:                                               ; preds = %8
  %12 = getelementptr inbounds nuw i8, ptr %2, i64 256
  %13 = load ptr, ptr %12, align 8
  %14 = getelementptr inbounds nuw i8, ptr %0, i64 336
  %15 = load i32, ptr %14, align 4
  %16 = zext i32 %15 to i64
  %17 = getelementptr inbounds nuw i8, ptr %13, i64 %16
  %18 = getelementptr inbounds nuw i8, ptr %0, i64 340
  %19 = load i32, ptr %18, align 4
  switch i32 %19, label %partial_load_u64a.exit [
    i32 8, label %20
    i32 7, label %22
    i32 6, label %35
    i32 5, label %43
    i32 4, label %51
    i32 3, label %54
    i32 2, label %62
    i32 1, label %65
  ]

20:                                               ; preds = %11
  %21 = load i64, ptr %17, align 1
  br label %partial_load_u64a.exit

22:                                               ; preds = %11
  %23 = load i32, ptr %17, align 1
  %24 = zext i32 %23 to i64
  %25 = getelementptr inbounds nuw i8, ptr %17, i64 4
  %26 = load i16, ptr %25, align 1
  %27 = zext i16 %26 to i64
  %28 = shl nuw nsw i64 %27, 32
  %29 = or disjoint i64 %28, %24
  %30 = getelementptr inbounds nuw i8, ptr %17, i64 6
  %31 = load i8, ptr %30, align 1
  %32 = zext i8 %31 to i64
  %33 = shl nuw nsw i64 %32, 48
  %34 = or disjoint i64 %29, %33
  br label %partial_load_u64a.exit

35:                                               ; preds = %11
  %36 = load i32, ptr %17, align 1
  %37 = zext i32 %36 to i64
  %38 = getelementptr inbounds nuw i8, ptr %17, i64 4
  %39 = load i16, ptr %38, align 1
  %40 = zext i16 %39 to i64
  %41 = shl nuw nsw i64 %40, 32
  %42 = or disjoint i64 %41, %37
  br label %partial_load_u64a.exit

43:                                               ; preds = %11
  %44 = load i32, ptr %17, align 1
  %45 = zext i32 %44 to i64
  %46 = getelementptr inbounds nuw i8, ptr %17, i64 4
  %47 = load i8, ptr %46, align 1
  %48 = zext i8 %47 to i64
  %49 = shl nuw nsw i64 %48, 32
  %50 = or disjoint i64 %49, %45
  br label %partial_load_u64a.exit

51:                                               ; preds = %11
  %52 = load i32, ptr %17, align 1
  %53 = zext i32 %52 to i64
  br label %partial_load_u64a.exit

54:                                               ; preds = %11
  %55 = load i16, ptr %17, align 1
  %56 = zext i16 %55 to i64
  %57 = getelementptr inbounds nuw i8, ptr %17, i64 2
  %58 = load i8, ptr %57, align 1
  %59 = zext i8 %58 to i64
  %60 = shl nuw nsw i64 %59, 16
  %61 = or disjoint i64 %60, %56
  br label %partial_load_u64a.exit

62:                                               ; preds = %11
  %63 = load i16, ptr %17, align 1
  %64 = zext i16 %63 to i64
  br label %partial_load_u64a.exit

65:                                               ; preds = %11
  %66 = load i8, ptr %17, align 1
  %67 = zext i8 %66 to i64
  br label %partial_load_u64a.exit

partial_load_u64a.exit:                           ; preds = %11, %20, %22, %35, %43, %51, %54, %62, %65
  %.0.i = phi i64 [ %67, %65 ], [ %64, %62 ], [ %61, %54 ], [ %53, %51 ], [ %50, %43 ], [ %42, %35 ], [ %34, %22 ], [ %21, %20 ], [ 0, %11 ]
  %68 = getelementptr inbounds nuw i8, ptr %2, i64 40
  store i64 %.0.i, ptr %68, align 8
  %69 = getelementptr inbounds nuw i8, ptr %2, i64 320
  %70 = load i64, ptr %69, align 8
  %71 = getelementptr inbounds nuw i8, ptr %2, i64 312
  %72 = load i64, ptr %71, align 8
  %73 = add i64 %70, 1
  %74 = sub i64 %73, %72
  %75 = getelementptr inbounds nuw i8, ptr %2, i64 48
  store i64 %74, ptr %75, align 8
  %76 = getelementptr inbounds nuw i8, ptr %2, i64 56
  store i64 %1, ptr %76, align 8
  %77 = getelementptr inbounds nuw i8, ptr %2, i64 64
  store i64 %1, ptr %77, align 8
  %78 = getelementptr inbounds nuw i8, ptr %2, i64 112
  store i32 0, ptr %78, align 8
  %79 = getelementptr inbounds nuw i8, ptr %2, i64 72
  store i64 0, ptr %79, align 8
  %80 = getelementptr inbounds nuw i8, ptr %2, i64 80
  store i64 %1, ptr %80, align 8
  %81 = getelementptr inbounds nuw i8, ptr %2, i64 88
  store i64 %1, ptr %81, align 8
  %82 = getelementptr inbounds nuw i8, ptr %2, i64 96
  store i64 %1, ptr %82, align 8
  %83 = getelementptr inbounds nuw i8, ptr %2, i64 104
  store i64 %1, ptr %83, align 8
  %84 = getelementptr inbounds nuw i8, ptr %2, i64 224
  store i32 0, ptr %84, align 8
  %85 = getelementptr inbounds nuw i8, ptr %2, i64 208
  store i64 0, ptr %85, align 16
  %86 = getelementptr inbounds nuw i8, ptr %2, i64 184
  %87 = load ptr, ptr %86, align 8
  tail call void @llvm.memset.p0.i64(ptr noundef nonnull align 8 dereferenceable(32) %87, i8 0, i64 32, i1 false)
  %88 = load i32, ptr %9, align 8
  %89 = tail call i64 @roseRunProgram(ptr noundef nonnull %0, ptr noundef nonnull %2, i32 noundef %88, i64 noundef 0, i64 noundef %1, i8 noundef zeroext 8) #10
  br label %90

90:                                               ; preds = %3, %8, %partial_load_u64a.exit
  ret void
}